; Function Attrs: mustprogress nounwind uwtable
define dso_local noundef ptr @_ZN4llvm18getPredForICmpCodeEjbPNS_4TypeERNS_7CmpInst9PredicateE(i32 noundef %0, i1 noundef zeroext %1, ptr noundef readonly %2, ptr nocapture noundef nonnull writeonly align 4 dereferenceable(4) %3) local_unnamed_addr #1 {
  switch i32 %0, label %5 [
    i32 0, label %6
    i32 1, label %21
    i32 2, label %23
    i32 3, label %24
    i32 4, label %26
    i32 5, label %28
    i32 6, label %29
    i32 7, label %31
  ]

5:                                                ; preds = %4
  unreachable

6:                                                ; preds = %4
  %7 = getelementptr inbounds nuw i8, ptr %2, i64 8
  %8 = load i32, ptr %7, align 8
  %9 = and i32 %8, 255
  %10 = add nsw i32 %9, -19
  %spec.select.i.i.i.i.i.i.i.i.i = icmp ult i32 %10, -2
  %.not7.i = icmp eq ptr %2, null
  %.not.i = or i1 %.not7.i, %spec.select.i.i.i.i.i.i.i.i.i
  %11 = load ptr, ptr %2, align 8
  %12 = tail call noundef ptr @_ZN4llvm4Type9getInt1TyERNS_11LLVMContextE(ptr noundef nonnull align 8 dereferenceable(8) %11) #7
  br i1 %.not.i, label %_ZN4llvm7CmpInst17makeCmpResultTypeEPNS_4TypeE.exit, label %13

13:                                               ; preds = %6
  %14 = getelementptr inbounds nuw i8, ptr %2, i64 32
  %15 = load i32, ptr %14, align 8
  %16 = load i32, ptr %7, align 8
  %17 = and i32 %16, 255
  %18 = icmp eq i32 %17, 18
  %.sroa.2.0.insert.shift.i.i.i = select i1 %18, i64 4294967296, i64 0
  %.sroa.0.0.insert.ext.i.i.i = zext i32 %15 to i64
  %.sroa.0.0.insert.insert.i.i.i = or disjoint i64 %.sroa.2.0.insert.shift.i.i.i, %.sroa.0.0.insert.ext.i.i.i
  %19 = tail call noundef ptr @_ZN4llvm10VectorType3getEPNS_4TypeENS_12ElementCountE(ptr noundef %12, i64 %.sroa.0.0.insert.insert.i.i.i) #7
  br label %_ZN4llvm7CmpInst17makeCmpResultTypeEPNS_4TypeE.exit

_ZN4llvm7CmpInst17makeCmpResultTypeEPNS_4TypeE.exit: ; preds = %6, %13
  %.0.i = phi ptr [ %19, %13 ], [ %12, %6 ]
  %20 = tail call noundef ptr @_ZN4llvm11ConstantInt3getEPNS_4TypeEmb(ptr noundef %.0.i, i64 noundef 0, i1 noundef zeroext false) #7
  br label %46

21:                                               ; preds = %4
  %22 = select i1 %1, i32 38, i32 34
  store i32 %22, ptr %3, align 4
  br label %46

23:                                               ; preds = %4
  store i32 32, ptr %3, align 4
  br label %46

24:                                               ; preds = %4
  %25 = select i1 %1, i32 39, i32 35
  store i32 %25, ptr %3, align 4
  br label %46

26:                                               ; preds = %4
  %27 = select i1 %1, i32 40, i32 36
  store i32 %27, ptr %3, align 4
  br label %46

28:                                               ; preds = %4
  store i32 33, ptr %3, align 4
  br label %46

29:                                               ; preds = %4
  %30 = select i1 %1, i32 41, i32 37
  store i32 %30, ptr %3, align 4
  br label %46

31:                                               ; preds = %4
  %32 = getelementptr inbounds nuw i8, ptr %2, i64 8
  %33 = load i32, ptr %32, align 8
  %34 = and i32 %33, 255
  %35 = add nsw i32 %34, -19
  %spec.select.i.i.i.i.i.i.i.i.i13 = icmp ult i32 %35, -2
  %.not7.i14 = icmp eq ptr %2, null
  %.not.i15 = or i1 %.not7.i14, %spec.select.i.i.i.i.i.i.i.i.i13
  %36 = load ptr, ptr %2, align 8
  %37 = tail call noundef ptr @_ZN4llvm4Type9getInt1TyERNS_11LLVMContextE(ptr noundef nonnull align 8 dereferenceable(8) %36) #7
  br i1 %.not.i15, label %_ZN4llvm7CmpInst17makeCmpResultTypeEPNS_4TypeE.exit20, label %38

38:                                               ; preds = %31
  %39 = getelementptr inbounds nuw i8, ptr %2, i64 32
  %40 = load i32, ptr %39, align 8
  %41 = load i32, ptr %32, align 8
  %42 = and i32 %41, 255
  %43 = icmp eq i32 %42, 18
  %.sroa.2.0.insert.shift.i.i.i16 = select i1 %43, i64 4294967296, i64 0
  %.sroa.0.0.insert.ext.i.i.i17 = zext i32 %40 to i64
  %.sroa.0.0.insert.insert.i.i.i18 = or disjoint i64 %.sroa.2.0.insert.shift.i.i.i16, %.sroa.0.0.insert.ext.i.i.i17
  %44 = tail call noundef ptr @_ZN4llvm10VectorType3getEPNS_4TypeENS_12ElementCountE(ptr noundef %37, i64 %.sroa.0.0.insert.insert.i.i.i18) #7
  br label %_ZN4llvm7CmpInst17makeCmpResultTypeEPNS_4TypeE.exit20

_ZN4llvm7CmpInst17makeCmpResultTypeEPNS_4TypeE.exit20: ; preds = %31, %38
  %.0.i19 = phi ptr [ %44, %38 ], [ %37, %31 ]
  %45 = tail call noundef ptr @_ZN4llvm11ConstantInt3getEPNS_4TypeEmb(ptr noundef %.0.i19, i64 noundef 1, i1 noundef zeroext false) #7
  br label %46

46:                                               ; preds = %21, %23, %24, %26, %28, %29, %_ZN4llvm7CmpInst17makeCmpResultTypeEPNS_4TypeE.exit20, %_ZN4llvm7CmpInst17makeCmpResultTypeEPNS_4TypeE.exit
  %.0 = phi ptr [ %45, %_ZN4llvm7CmpInst17makeCmpResultTypeEPNS_4TypeE.exit20 ], [ %20, %_ZN4llvm7CmpInst17makeCmpResultTypeEPNS_4TypeE.exit ], [ null, %29 ], [ null, %28 ], [ null, %26 ], [ null, %24 ], [ null, %23 ], [ null, %21 ]
  ret ptr %.0
}